target datalayout = "e-m:e-p270:32:32-p271:32:32-p272:64:64-i64:64-i128:128-f80:128-n8:16:32:64-S128"
target triple = "x86_64-pc-linux-gnu"

%struct.lv_ll_t = type { i32, ptr, ptr }
%struct.lv_style_t = type { ptr, i32, i8 }
%struct._lv_spangroup_t = type { %struct._lv_obj_t, i32, i32, i32, i32, %struct.lv_ll_t, i8 }
%struct._lv_obj_t = type { ptr, ptr, ptr, ptr, ptr, %struct.lv_area_t, i32, i16, i16 }
%struct.lv_area_t = type { i32, i32, i32, i32 }
%struct._lv_span_t = type { ptr, ptr, %struct.lv_style_t, i8, %struct.lv_point_t, i32 }
%struct.lv_point_t = type { i32, i32 }
%union.lv_style_value_t = type { ptr }

@.str.1 = private unnamed_addr constant [1 x i8] zeroinitializer, align 1
@lv_text_encoded_next = external constant ptr, align 8

; Function Attrs: inlinehint nounwind uwtable
define internal i32 @lv_obj_get_style_text_letter_space(ptr noundef %0, i32 noundef %1) #3 {
  %3 = alloca ptr, align 8
  %4 = alloca i32, align 4
  %5 = alloca %union.lv_style_value_t, align 8
  store ptr %0, ptr %3, align 8, !tbaa !3
  store i32 %1, ptr %4, align 4, !tbaa !23
  call void @llvm.lifetime.start.p0(i64 8, ptr %5) #6
  %6 = load ptr, ptr %3, align 8, !tbaa !3
  %7 = load i32, ptr %4, align 4, !tbaa !23
  %8 = call ptr @lv_obj_get_style_prop(ptr noundef %6, i32 noundef %7, i8 noundef zeroext 91)
  %9 = getelementptr inbounds nuw %union.lv_style_value_t, ptr %5, i32 0, i32 0
  store ptr %8, ptr %9, align 8
  %10 = load i32, ptr %5, align 8, !tbaa !45
  call void @llvm.lifetime.end.p0(i64 8, ptr %5) #6
  ret i32 %10
}

; Function Attrs: inlinehint nounwind uwtable
define internal ptr @lv_obj_get_style_text_font(ptr noundef %0, i32 noundef %1) #3 {
  %3 = alloca ptr, align 8
  %4 = alloca i32, align 4
  %5 = alloca %union.lv_style_value_t, align 8
  store ptr %0, ptr %3, align 8, !tbaa !3
  store i32 %1, ptr %4, align 4, !tbaa !23
  call void @llvm.lifetime.start.p0(i64 8, ptr %5) #6
  %6 = load ptr, ptr %3, align 8, !tbaa !3
  %7 = load i32, ptr %4, align 4, !tbaa !23
  %8 = call ptr @lv_obj_get_style_prop(ptr noundef %6, i32 noundef %7, i8 noundef zeroext 90)
  %9 = getelementptr inbounds nuw %union.lv_style_value_t, ptr %5, i32 0, i32 0
  store ptr %8, ptr %9, align 8
  %10 = load ptr, ptr %5, align 8, !tbaa !45
  call void @llvm.lifetime.end.p0(i64 8, ptr %5) #6
  ret ptr %10
}

; Function Attrs: inlinehint nounwind uwtable
define internal void @span_text_check(ptr noundef %0) #3 {
  %2 = alloca ptr, align 8
  store ptr %0, ptr %2, align 8, !tbaa !3
  %3 = load ptr, ptr %2, align 8, !tbaa !3
  %4 = load ptr, ptr %3, align 8, !tbaa !3
  %5 = icmp eq ptr %4, null
  br i1 %5, label %6, label %10

6:                                                ; preds = %1
  %7 = load ptr, ptr %2, align 8, !tbaa !3
  store ptr @.str.1, ptr %7, align 8, !tbaa !3
  br label %8

8:                                                ; preds = %6
  br label %9

9:                                                ; preds = %8
  br label %10

10:                                               ; preds = %9, %1
  ret void
}

; Function Attrs: nounwind uwtable
define internal i32 @lv_span_get_style_text_letter_space(ptr noundef %0, ptr noundef %1) #0 {
  %3 = alloca ptr, align 8
  %4 = alloca ptr, align 8
  %5 = alloca i32, align 4
  %6 = alloca %union.lv_style_value_t, align 8
  %7 = alloca i32, align 4
  store ptr %0, ptr %3, align 8, !tbaa !3
  store ptr %1, ptr %4, align 8, !tbaa !3
  call void @llvm.lifetime.start.p0(i64 4, ptr %5) #6
  call void @llvm.lifetime.start.p0(i64 8, ptr %6) #6
  call void @llvm.lifetime.start.p0(i64 4, ptr %7) #6
  %8 = load ptr, ptr %4, align 8, !tbaa !3
  %9 = getelementptr inbounds nuw %struct._lv_span_t, ptr %8, i32 0, i32 2
  %10 = call i32 @lv_style_get_prop(ptr noundef %9, i8 noundef zeroext 91, ptr noundef %6)
  store i32 %10, ptr %7, align 4, !tbaa !23
  %11 = load i32, ptr %7, align 4, !tbaa !23
  %12 = icmp ne i32 %11, 1
  br i1 %12, label %13, label %16

13:                                               ; preds = %2
  %14 = load ptr, ptr %3, align 8, !tbaa !3
  %15 = call i32 @lv_obj_get_style_text_letter_space(ptr noundef %14, i32 noundef 0)
  store i32 %15, ptr %5, align 4, !tbaa !23
  br label %18

16:                                               ; preds = %2
  %17 = load i32, ptr %6, align 8, !tbaa !45
  store i32 %17, ptr %5, align 4, !tbaa !23
  br label %18

18:                                               ; preds = %16, %13
  %19 = load i32, ptr %5, align 4, !tbaa !23
  call void @llvm.lifetime.end.p0(i64 4, ptr %7) #6
  call void @llvm.lifetime.end.p0(i64 8, ptr %6) #6
  call void @llvm.lifetime.end.p0(i64 4, ptr %5) #6
  ret i32 %19
}

; Function Attrs: nounwind uwtable
define internal ptr @lv_span_get_style_text_font(ptr noundef %0, ptr noundef %1) #0 {
  %3 = alloca ptr, align 8
  %4 = alloca ptr, align 8
  %5 = alloca ptr, align 8
  %6 = alloca %union.lv_style_value_t, align 8
  %7 = alloca i32, align 4
  store ptr %0, ptr %3, align 8, !tbaa !3
  store ptr %1, ptr %4, align 8, !tbaa !3
  call void @llvm.lifetime.start.p0(i64 8, ptr %5) #6
  call void @llvm.lifetime.start.p0(i64 8, ptr %6) #6
  call void @llvm.lifetime.start.p0(i64 4, ptr %7) #6
  %8 = load ptr, ptr %4, align 8, !tbaa !3
  %9 = getelementptr inbounds nuw %struct._lv_span_t, ptr %8, i32 0, i32 2
  %10 = call i32 @lv_style_get_prop(ptr noundef %9, i8 noundef zeroext 90, ptr noundef %6)
  store i32 %10, ptr %7, align 4, !tbaa !23
  %11 = load i32, ptr %7, align 4, !tbaa !23
  %12 = icmp ne i32 %11, 1
  br i1 %12, label %13, label %16

13:                                               ; preds = %2
  %14 = load ptr, ptr %3, align 8, !tbaa !3
  %15 = call ptr @lv_obj_get_style_text_font(ptr noundef %14, i32 noundef 0)
  store ptr %15, ptr %5, align 8, !tbaa !3
  br label %18

16:                                               ; preds = %2
  %17 = load ptr, ptr %6, align 8, !tbaa !45
  store ptr %17, ptr %5, align 8, !tbaa !3
  br label %18

18:                                               ; preds = %16, %13
  %19 = load ptr, ptr %5, align 8, !tbaa !3
  call void @llvm.lifetime.end.p0(i64 4, ptr %7) #6
  call void @llvm.lifetime.end.p0(i64 8, ptr %6) #6
  call void @llvm.lifetime.end.p0(i64 8, ptr %5) #6
  ret ptr %19
}

; Function Attrs: nounwind uwtable
define i32 @lv_spangroup_get_expand_width(ptr noundef %0, i32 noundef %1) #0 {
  %3 = alloca i32, align 4
  %4 = alloca ptr, align 8
  %5 = alloca i32, align 4
  %6 = alloca ptr, align 8
  %7 = alloca i32, align 4
  %8 = alloca i32, align 4
  %9 = alloca ptr, align 8
  %10 = alloca i32, align 4
  %11 = alloca ptr, align 8
  %12 = alloca i32, align 4
  %13 = alloca ptr, align 8
  %14 = alloca i32, align 4
  %15 = alloca i32, align 4
  %16 = alloca i32, align 4
  store ptr %0, ptr %4, align 8, !tbaa !3
  store i32 %1, ptr %5, align 4, !tbaa !23
  br label %17

17:                                               ; preds = %2
  br label %18

18:                                               ; preds = %17
  call void @llvm.lifetime.start.p0(i64 8, ptr %6) #6
  %19 = load ptr, ptr %4, align 8, !tbaa !3
  store ptr %19, ptr %6, align 8, !tbaa !3
  %20 = load ptr, ptr %6, align 8, !tbaa !3
  %21 = getelementptr inbounds nuw %struct._lv_spangroup_t, ptr %20, i32 0, i32 5
  %22 = call ptr @lv_ll_get_head(ptr noundef %21)
  %23 = icmp eq ptr %22, null
  br i1 %23, label %24, label %25

24:                                               ; preds = %18
  store i32 0, ptr %3, align 4
  store i32 1, ptr %7, align 4
  br label %111

25:                                               ; preds = %18
  call void @llvm.lifetime.start.p0(i64 4, ptr %8) #6
  %26 = load ptr, ptr %6, align 8, !tbaa !3
  %27 = getelementptr inbounds nuw %struct._lv_spangroup_t, ptr %26, i32 0, i32 2
  %28 = load i32, ptr %27, align 4, !tbaa !7
  %29 = and i32 %28, 1610612736
  %30 = icmp eq i32 %29, 536870912
  br i1 %30, label %31, label %38

31:                                               ; preds = %25
  %32 = load ptr, ptr %6, align 8, !tbaa !3
  %33 = getelementptr inbounds nuw %struct._lv_spangroup_t, ptr %32, i32 0, i32 2
  %34 = load i32, ptr %33, align 4, !tbaa !7
  %35 = and i32 %34, -1610612737
  %36 = icmp sle i32 %35, 536870910
  br i1 %36, label %37, label %38

37:                                               ; preds = %31
  br label %42

38:                                               ; preds = %31, %25
  %39 = load ptr, ptr %6, align 8, !tbaa !3
  %40 = getelementptr inbounds nuw %struct._lv_spangroup_t, ptr %39, i32 0, i32 2
  %41 = load i32, ptr %40, align 4, !tbaa !7
  br label %42

42:                                               ; preds = %38, %37
  %43 = phi i32 [ 0, %37 ], [ %41, %38 ]
  store i32 %43, ptr %8, align 4, !tbaa !23
  call void @llvm.lifetime.start.p0(i64 8, ptr %9) #6
  call void @llvm.lifetime.start.p0(i64 4, ptr %10) #6
  store i32 0, ptr %10, align 4, !tbaa !23
  %44 = load ptr, ptr %6, align 8, !tbaa !3
  %45 = getelementptr inbounds nuw %struct._lv_spangroup_t, ptr %44, i32 0, i32 5
  %46 = call ptr @lv_ll_get_head(ptr noundef %45)
  store ptr %46, ptr %9, align 8, !tbaa !3
  br label %47

47:                                               ; preds = %101, %42
  %48 = load ptr, ptr %9, align 8, !tbaa !3
  %49 = icmp ne ptr %48, null
  br i1 %49, label %50, label %106

50:                                               ; preds = %47
  call void @llvm.lifetime.start.p0(i64 8, ptr %11) #6
  %51 = load ptr, ptr %4, align 8, !tbaa !3
  %52 = load ptr, ptr %9, align 8, !tbaa !3
  %53 = call ptr @lv_span_get_style_text_font(ptr noundef %51, ptr noundef %52)
  store ptr %53, ptr %11, align 8, !tbaa !3
  %54 = load ptr, ptr %4, align 8, !tbaa !3
  %55 = load ptr, ptr %9, align 8, !tbaa !3
  %56 = call i32 @lv_span_get_style_text_letter_space(ptr noundef %54, ptr noundef %55)
  store i32 %56, ptr %10, align 4, !tbaa !23
  call void @llvm.lifetime.start.p0(i64 4, ptr %12) #6
  store i32 0, ptr %12, align 4, !tbaa !23
  call void @llvm.lifetime.start.p0(i64 8, ptr %13) #6
  %57 = load ptr, ptr %9, align 8, !tbaa !3
  %58 = getelementptr inbounds nuw %struct._lv_span_t, ptr %57, i32 0, i32 0
  %59 = load ptr, ptr %58, align 8, !tbaa !17
  store ptr %59, ptr %13, align 8, !tbaa !3
  call void @span_text_check(ptr noundef %13)
  br label %60

60:                                               ; preds = %77, %50
  %61 = load ptr, ptr %13, align 8, !tbaa !3
  %62 = load i32, ptr %12, align 4, !tbaa !23
  %63 = zext i32 %62 to i64
  %64 = getelementptr inbounds nuw i8, ptr %61, i64 %63
  %65 = load i8, ptr %64, align 1, !tbaa !45
  %66 = sext i8 %65 to i32
  %67 = icmp ne i32 %66, 0
  br i1 %67, label %68, label %97

68:                                               ; preds = %60
  %69 = load i32, ptr %5, align 4, !tbaa !23
  %70 = icmp ugt i32 %69, 0
  br i1 %70, label %71, label %77

71:                                               ; preds = %68
  %72 = load i32, ptr %8, align 4, !tbaa !23
  %73 = load i32, ptr %5, align 4, !tbaa !23
  %74 = icmp uge i32 %72, %73
  br i1 %74, label %75, label %77

75:                                               ; preds = %71
  %76 = load i32, ptr %5, align 4, !tbaa !23
  store i32 %76, ptr %3, align 4
  store i32 1, ptr %7, align 4
  br label %98

77:                                               ; preds = %71, %68
  call void @llvm.lifetime.start.p0(i64 4, ptr %14) #6
  %78 = load ptr, ptr @lv_text_encoded_next, align 8, !tbaa !3
  %79 = load ptr, ptr %13, align 8, !tbaa !3
  %80 = call i32 %78(ptr noundef %79, ptr noundef %12)
  store i32 %80, ptr %14, align 4, !tbaa !23
  call void @llvm.lifetime.start.p0(i64 4, ptr %15) #6
  %81 = load ptr, ptr @lv_text_encoded_next, align 8, !tbaa !3
  %82 = load ptr, ptr %13, align 8, !tbaa !3
  %83 = load i32, ptr %12, align 4, !tbaa !23
  %84 = zext i32 %83 to i64
  %85 = getelementptr inbounds nuw i8, ptr %82, i64 %84
  %86 = call i32 %81(ptr noundef %85, ptr noundef null)
  store i32 %86, ptr %15, align 4, !tbaa !23
  call void @llvm.lifetime.start.p0(i64 4, ptr %16) #6
  %87 = load ptr, ptr %11, align 8, !tbaa !3
  %88 = load i32, ptr %14, align 4, !tbaa !23
  %89 = load i32, ptr %15, align 4, !tbaa !23
  %90 = call zeroext i16 @lv_font_get_glyph_width(ptr noundef %87, i32 noundef %88, i32 noundef %89)
  %91 = zext i16 %90 to i32
  store i32 %91, ptr %16, align 4, !tbaa !23
  %92 = load i32, ptr %8, align 4, !tbaa !23
  %93 = load i32, ptr %16, align 4, !tbaa !23
  %94 = add i32 %92, %93
  %95 = load i32, ptr %10, align 4, !tbaa !23
  %96 = add i32 %94, %95
  store i32 %96, ptr %8, align 4, !tbaa !23
  call void @llvm.lifetime.end.p0(i64 4, ptr %16) #6
  call void @llvm.lifetime.end.p0(i64 4, ptr %15) #6
  call void @llvm.lifetime.end.p0(i64 4, ptr %14) #6
  br label %60, !llvm.loop !59

97:                                               ; preds = %60
  store i32 0, ptr %7, align 4
  br label %98

98:                                               ; preds = %97, %75
  call void @llvm.lifetime.end.p0(i64 8, ptr %13) #6
  call void @llvm.lifetime.end.p0(i64 4, ptr %12) #6
  call void @llvm.lifetime.end.p0(i64 8, ptr %11) #6
  %99 = load i32, ptr %7, align 4
  switch i32 %99, label %110 [
    i32 0, label %100
  ]

100:                                              ; preds = %98
  br label %101

101:                                              ; preds = %100
  %102 = load ptr, ptr %6, align 8, !tbaa !3
  %103 = getelementptr inbounds nuw %struct._lv_spangroup_t, ptr %102, i32 0, i32 5
  %104 = load ptr, ptr %9, align 8, !tbaa !3
  %105 = call ptr @lv_ll_get_next(ptr noundef %103, ptr noundef %104)
  store ptr %105, ptr %9, align 8, !tbaa !3
  br label %47, !llvm.loop !60

106:                                              ; preds = %47
  %107 = load i32, ptr %8, align 4, !tbaa !23
  %108 = load i32, ptr %10, align 4, !tbaa !23
  %109 = sub i32 %107, %108
  store i32 %109, ptr %3, align 4
  store i32 1, ptr %7, align 4
  br label %110

110:                                              ; preds = %106, %98
  call void @llvm.lifetime.end.p0(i64 4, ptr %10) #6
  call void @llvm.lifetime.end.p0(i64 8, ptr %9) #6
  call void @llvm.lifetime.end.p0(i64 4, ptr %8) #6
  br label %111

111:                                              ; preds = %110, %24
  call void @llvm.lifetime.end.p0(i64 8, ptr %6) #6
  %112 = load i32, ptr %3, align 4
  ret i32 %112
}