; Function Attrs: nounwind uwtable
define i32 @lv_spangroup_get_expand_width(ptr noundef %0, i32 noundef %1) local_unnamed_addr #0 {
  %3 = alloca %union.lv_style_value_t, align 8
  %4 = alloca %union.lv_style_value_t, align 8
  %5 = alloca i32, align 4
  %6 = getelementptr inbounds nuw i8, ptr %0, i64 80
  %7 = tail call ptr @lv_ll_get_head(ptr noundef nonnull %6) #8
  %8 = icmp eq ptr %7, null
  br i1 %8, label %54, label %9

9:                                                ; preds = %2
  %10 = getelementptr inbounds nuw i8, ptr %0, i64 68
  %11 = load i32, ptr %10, align 4, !tbaa !3
  %12 = and i32 %11, 1610612736
  %13 = icmp ne i32 %12, 536870912
  %14 = and i32 %11, -1610612737
  %.not = icmp eq i32 %14, 536870911
  %or.cond = or i1 %13, %.not
  %spec.select = select i1 %or.cond, i32 %11, i32 0
  %15 = freeze i32 %spec.select
  %16 = tail call ptr @lv_ll_get_head(ptr noundef nonnull %6) #8
  %.not3351 = icmp eq ptr %16, null
  br i1 %.not3351, label %._crit_edge56, label %.lr.ph55

.lr.ph55:                                         ; preds = %9
  %17 = add i32 %1, -1
  %18 = load ptr, ptr @lv_text_encoded_next, align 8
  br label %19

19:                                               ; preds = %.lr.ph55, %._crit_edge
  %.02853 = phi i32 [ %15, %.lr.ph55 ], [ %.lcssa, %._crit_edge ]
  %.03052 = phi ptr [ %16, %.lr.ph55 ], [ %52, %._crit_edge ]
  call void @llvm.lifetime.start.p0(i64 8, ptr nonnull %4) #8
  %20 = getelementptr inbounds nuw i8, ptr %.03052, i64 16
  %21 = call i32 @lv_style_get_prop(ptr noundef nonnull %20, i8 noundef zeroext 90, ptr noundef nonnull %4) #8
  %.not.i = icmp eq i32 %21, 1
  br i1 %.not.i, label %24, label %22

22:                                               ; preds = %19
  %23 = call ptr @lv_obj_get_style_prop(ptr noundef %0, i32 noundef 0, i8 noundef zeroext 90) #8
  br label %lv_span_get_style_text_font.exit

24:                                               ; preds = %19
  %25 = load ptr, ptr %4, align 8, !tbaa !38
  br label %lv_span_get_style_text_font.exit

lv_span_get_style_text_font.exit:                 ; preds = %22, %24
  %.0.i = phi ptr [ %23, %22 ], [ %25, %24 ]
  call void @llvm.lifetime.end.p0(i64 8, ptr nonnull %4) #8
  call void @llvm.lifetime.start.p0(i64 8, ptr nonnull %3) #8
  %26 = call i32 @lv_style_get_prop(ptr noundef nonnull %20, i8 noundef zeroext 91, ptr noundef nonnull %3) #8
  %.not.i38 = icmp eq i32 %26, 1
  br i1 %.not.i38, label %30, label %27

27:                                               ; preds = %lv_span_get_style_text_font.exit
  %28 = call ptr @lv_obj_get_style_prop(ptr noundef %0, i32 noundef 0, i8 noundef zeroext 91) #8
  %29 = ptrtoint ptr %28 to i64
  %.sroa.0.0.extract.trunc.i.i = trunc i64 %29 to i32
  br label %lv_span_get_style_text_letter_space.exit

30:                                               ; preds = %lv_span_get_style_text_font.exit
  %31 = load i32, ptr %3, align 8, !tbaa !38
  br label %lv_span_get_style_text_letter_space.exit

lv_span_get_style_text_letter_space.exit:         ; preds = %27, %30
  %.0.i39 = phi i32 [ %.sroa.0.0.extract.trunc.i.i, %27 ], [ %31, %30 ]
  call void @llvm.lifetime.end.p0(i64 8, ptr nonnull %3) #8
  call void @llvm.lifetime.start.p0(i64 4, ptr nonnull %5) #8
  store i32 0, ptr %5, align 4, !tbaa !23
  %32 = load ptr, ptr %.03052, align 8, !tbaa !16
  %33 = icmp eq ptr %32, null
  %spec.select46 = select i1 %33, ptr @.str.1, ptr %32
  %34 = load i8, ptr %spec.select46, align 1, !tbaa !38
  %.not3450 = icmp eq i8 %34, 0
  br i1 %.not3450, label %._crit_edge, label %.lr.ph

.lr.ph:                                           ; preds = %lv_span_get_style_text_letter_space.exit, %36
  %35 = phi i32 [ %46, %36 ], [ %.02853, %lv_span_get_style_text_letter_space.exit ]
  %or.cond37.not = icmp ult i32 %17, %35
  br i1 %or.cond37.not, label %51, label %36

36:                                               ; preds = %.lr.ph
  %37 = call i32 %18(ptr noundef nonnull %spec.select46, ptr noundef nonnull %5) #8
  %38 = load i32, ptr %5, align 4, !tbaa !23
  %39 = zext i32 %38 to i64
  %40 = getelementptr inbounds nuw i8, ptr %spec.select46, i64 %39
  %41 = call i32 %18(ptr noundef nonnull %40, ptr noundef null) #8
  %42 = call zeroext i16 @lv_font_get_glyph_width(ptr noundef %.0.i, i32 noundef %37, i32 noundef %41) #8
  %43 = zext i16 %42 to i32
  %44 = add i32 %35, %.0.i39
  %45 = add i32 %44, %43
  %46 = freeze i32 %45
  %47 = load i32, ptr %5, align 4, !tbaa !23
  %48 = zext i32 %47 to i64
  %49 = getelementptr inbounds nuw i8, ptr %spec.select46, i64 %48
  %50 = load i8, ptr %49, align 1, !tbaa !38
  %.not34 = icmp eq i8 %50, 0
  br i1 %.not34, label %._crit_edge, label %.lr.ph, !llvm.loop !79

51:                                               ; preds = %.lr.ph
  call void @llvm.lifetime.end.p0(i64 4, ptr nonnull %5) #8
  br label %54

._crit_edge:                                      ; preds = %36, %lv_span_get_style_text_letter_space.exit
  %.lcssa = phi i32 [ %.02853, %lv_span_get_style_text_letter_space.exit ], [ %46, %36 ]
  call void @llvm.lifetime.end.p0(i64 4, ptr nonnull %5) #8
  %52 = call ptr @lv_ll_get_next(ptr noundef nonnull %6, ptr noundef nonnull %.03052) #8
  %.not33 = icmp eq ptr %52, null
  br i1 %.not33, label %._crit_edge56, label %19, !llvm.loop !80

._crit_edge56:                                    ; preds = %._crit_edge, %9
  %.031.lcssa = phi i32 [ 0, %9 ], [ %.0.i39, %._crit_edge ]
  %.028.lcssa = phi i32 [ %15, %9 ], [ %.lcssa, %._crit_edge ]
  %53 = sub i32 %.028.lcssa, %.031.lcssa
  br label %54

54:                                               ; preds = %51, %._crit_edge56, %2
  %.0 = phi i32 [ 0, %2 ], [ %1, %51 ], [ %53, %._crit_edge56 ]
  ret i32 %.0
}